target datalayout = "e-m:e-p270:32:32-p271:32:32-p272:64:64-i64:64-i128:128-f80:128-n8:16:32:64-S128"
target triple = "x86_64-pc-linux-gnu"

%struct._cms_io_handler = type { ptr, ptr, i32, i32, [256 x i8], ptr, ptr, ptr, ptr, ptr }
%struct.cmsICCData = type { i32, i32, [1 x i8] }

; Function Attrs: nounwind uwtable
define internal i32 @Type_Data_Write(ptr noundef %0, ptr noundef %1, ptr noundef %2, i32 noundef %3) #0 {
  %5 = alloca i32, align 4
  %6 = alloca ptr, align 8
  %7 = alloca ptr, align 8
  %8 = alloca ptr, align 8
  %9 = alloca i32, align 4
  %10 = alloca ptr, align 8
  store ptr %0, ptr %6, align 8
  store ptr %1, ptr %7, align 8
  store ptr %2, ptr %8, align 8
  store i32 %3, ptr %9, align 4
  %11 = load ptr, ptr %8, align 8
  store ptr %11, ptr %10, align 8
  %12 = load ptr, ptr %7, align 8
  %13 = load ptr, ptr %10, align 8
  %14 = getelementptr inbounds %struct.cmsICCData, ptr %13, i32 0, i32 1
  %15 = load i32, ptr %14, align 4
  %16 = call i32 @_cmsWriteUInt32Number(ptr noundef %12, i32 noundef %15)
  %17 = icmp ne i32 %16, 0
  br i1 %17, label %19, label %18

18:                                               ; preds = %4
  store i32 0, ptr %5, align 4
  br label %31

19:                                               ; preds = %4
  %20 = load ptr, ptr %7, align 8
  %21 = getelementptr inbounds %struct._cms_io_handler, ptr %20, i32 0, i32 9
  %22 = load ptr, ptr %21, align 8
  %23 = load ptr, ptr %7, align 8
  %24 = load ptr, ptr %10, align 8
  %25 = getelementptr inbounds %struct.cmsICCData, ptr %24, i32 0, i32 0
  %26 = load i32, ptr %25, align 4
  %27 = load ptr, ptr %10, align 8
  %28 = getelementptr inbounds %struct.cmsICCData, ptr %27, i32 0, i32 2
  %29 = getelementptr inbounds [1 x i8], ptr %28, i64 0, i64 0
  %30 = call i32 %22(ptr noundef %23, i32 noundef %26, ptr noundef %29)
  store i32 %30, ptr %5, align 4
  br label %31

31:                                               ; preds = %19, %18
  %32 = load i32, ptr %5, align 4
  ret i32 %32
}