; Function Attrs: nounwind uwtable
define internal i32 @Type_Data_Write(ptr nocapture readnone %0, ptr noundef %1, ptr noundef %2, i32 %3) #0 {
  %5 = getelementptr inbounds i8, ptr %2, i64 4
  %6 = load i32, ptr %5, align 4
  %7 = tail call i32 @_cmsWriteUInt32Number(ptr noundef %1, i32 noundef %6) #13
  %.not = icmp eq i32 %7, 0
  br i1 %.not, label %14, label %8

8:                                                ; preds = %4
  %9 = getelementptr inbounds i8, ptr %1, i64 312
  %10 = load ptr, ptr %9, align 8
  %11 = load i32, ptr %2, align 4
  %12 = getelementptr inbounds i8, ptr %2, i64 8
  %13 = tail call i32 %10(ptr noundef %1, i32 noundef %11, ptr noundef nonnull %12) #13
  br label %14

14:                                               ; preds = %4, %8
  %.0 = phi i32 [ %13, %8 ], [ 0, %4 ]
  ret i32 %.0
}